; Function Attrs: mustprogress nofree norecurse nosync nounwind memory(readwrite, inaccessiblemem: none) uwtable
define void @_Z22init_expanded_ensemblebPK10t_inputrecP12df_history_t(i1 noundef zeroext %0, ptr nocapture noundef readonly %1, ptr nocapture noundef %2) local_unnamed_addr #0 {
  br i1 %0, label %_ZL23init_df_history_weightsP12df_history_tPK10t_expandedi.exit, label %4

4:                                                ; preds = %3
  %5 = getelementptr inbounds i8, ptr %1, i64 432
  %6 = load ptr, ptr %5, align 8
  %7 = getelementptr inbounds i8, ptr %1, i64 400
  %8 = load ptr, ptr %7, align 8
  %9 = getelementptr inbounds i8, ptr %8, i64 36
  %10 = load i32, ptr %9, align 4
  %11 = getelementptr inbounds i8, ptr %6, i64 84
  %12 = load float, ptr %11, align 4
  %13 = getelementptr inbounds i8, ptr %2, i64 24
  store float %12, ptr %13, align 8
  %14 = icmp sgt i32 %10, 0
  br i1 %14, label %.lr.ph.i, label %_ZL23init_df_history_weightsP12df_history_tPK10t_expandedi.exit

.lr.ph.i:                                         ; preds = %4
  %15 = getelementptr inbounds i8, ptr %6, i64 96
  %16 = getelementptr inbounds i8, ptr %2, i64 32
  %17 = getelementptr inbounds i8, ptr %2, i64 40
  %wide.trip.count.i = zext nneg i32 %10 to i64
  br label %18

18:                                               ; preds = %18, %.lr.ph.i
  %indvars.iv.i = phi i64 [ 0, %.lr.ph.i ], [ %indvars.iv.next.i, %18 ]
  %19 = load ptr, ptr %15, align 8
  %20 = getelementptr inbounds float, ptr %19, i64 %indvars.iv.i
  %21 = load float, ptr %20, align 4
  %22 = load ptr, ptr %16, align 8
  %23 = getelementptr inbounds float, ptr %22, i64 %indvars.iv.i
  store float %21, ptr %23, align 4
  %24 = load ptr, ptr %15, align 8
  %25 = getelementptr inbounds float, ptr %24, i64 %indvars.iv.i
  %26 = load float, ptr %25, align 4
  %27 = load ptr, ptr %17, align 8
  %28 = getelementptr inbounds float, ptr %27, i64 %indvars.iv.i
  store float %26, ptr %28, align 4
  %indvars.iv.next.i = add nuw nsw i64 %indvars.iv.i, 1
  %exitcond.not.i = icmp eq i64 %indvars.iv.next.i, %wide.trip.count.i
  br i1 %exitcond.not.i, label %_ZL23init_df_history_weightsP12df_history_tPK10t_expandedi.exit, label %18, !llvm.loop !5

_ZL23init_df_history_weightsP12df_history_tPK10t_expandedi.exit: ; preds = %18, %4, %3
  ret void
}